; Function Attrs: mustprogress uwtable
define hidden void @_ZN3euf25smt_theory_checker_plugin6clauseEP3app(ptr dead_on_unwind noalias writable sret(%class.ref_vector) align 8 initializes((0, 16)) %0, ptr noundef nonnull readonly align 8 captures(none) dereferenceable(16) %1, ptr noundef readonly captures(address) %2) unnamed_addr #3 align 2 personality ptr @__gxx_personality_v0 {
  %4 = getelementptr inbounds nuw i8, ptr %1, i64 8
  %5 = load ptr, ptr %4, align 8, !tbaa !118
  %6 = ptrtoint ptr %5 to i64
  store i64 %6, ptr %0, align 8, !tbaa !3
  %7 = getelementptr inbounds nuw i8, ptr %0, i64 8
  store ptr null, ptr %7, align 8, !tbaa !87
  %8 = getelementptr inbounds nuw i8, ptr %2, i64 24
  %9 = load i32, ptr %8, align 8, !tbaa !116
  %10 = zext i32 %9 to i64
  %.idx = shl nuw nsw i64 %10, 3
  %11 = getelementptr inbounds nuw i8, ptr %2, i64 %.idx
  %.ptr13 = getelementptr inbounds nuw i8, ptr %11, i64 32
  %.not11 = icmp eq i32 %9, 0
  br i1 %.not11, label %._crit_edge, label %.lr.ph.preheader

.lr.ph.preheader:                                 ; preds = %3
  %.ptr = getelementptr inbounds nuw i8, ptr %2, i64 32
  br label %.lr.ph

.lr.ph:                                           ; preds = %.lr.ph.preheader, %29
  %.012 = phi ptr [ %36, %29 ], [ %.ptr, %.lr.ph.preheader ]
  %12 = load ptr, ptr %.012, align 8, !tbaa !90
  %13 = load ptr, ptr %4, align 8, !tbaa !118
  %14 = invoke noundef ptr @_Z6mk_notR11ast_managerP4expr(ptr noundef nonnull align 8 dereferenceable(976) %13, ptr noundef %12)
          to label %15 unwind label %37

15:                                               ; preds = %.lr.ph
  %.not.i.i.i.i = icmp eq ptr %14, null
  br i1 %.not.i.i.i.i, label %_ZN15ref_vector_coreI4expr19ref_manager_wrapperIS0_11ast_managerEE7inc_refEPS0_.exit.i, label %16

16:                                               ; preds = %15
  %17 = getelementptr inbounds nuw i8, ptr %14, i64 8
  %18 = load i32, ptr %17, align 4, !tbaa !94
  %19 = add i32 %18, 1
  store i32 %19, ptr %17, align 4, !tbaa !94
  br label %_ZN15ref_vector_coreI4expr19ref_manager_wrapperIS0_11ast_managerEE7inc_refEPS0_.exit.i

_ZN15ref_vector_coreI4expr19ref_manager_wrapperIS0_11ast_managerEE7inc_refEPS0_.exit.i: ; preds = %16, %15
  %20 = load ptr, ptr %7, align 8, !tbaa !87
  %21 = icmp eq ptr %20, null
  br i1 %21, label %28, label %22

22:                                               ; preds = %_ZN15ref_vector_coreI4expr19ref_manager_wrapperIS0_11ast_managerEE7inc_refEPS0_.exit.i
  %23 = getelementptr inbounds i8, ptr %20, i64 -4
  %24 = load i32, ptr %23, align 4, !tbaa !21
  %25 = getelementptr inbounds i8, ptr %20, i64 -8
  %26 = load i32, ptr %25, align 4, !tbaa !21
  %27 = icmp eq i32 %24, %26
  br i1 %27, label %28, label %29

28:                                               ; preds = %22, %_ZN15ref_vector_coreI4expr19ref_manager_wrapperIS0_11ast_managerEE7inc_refEPS0_.exit.i
  invoke void @_ZN6vectorIP4exprLb0EjE13expand_vectorEv(ptr noundef nonnull align 8 dereferenceable(8) %7)
          to label %.noexc unwind label %37

.noexc:                                           ; preds = %28
  %.pre.i.i = load ptr, ptr %7, align 8, !tbaa !87
  %.phi.trans.insert.i.i = getelementptr inbounds i8, ptr %.pre.i.i, i64 -4
  %.pre2.i.i = load i32, ptr %.phi.trans.insert.i.i, align 4, !tbaa !21
  br label %29

29:                                               ; preds = %.noexc, %22
  %30 = phi i32 [ %.pre2.i.i, %.noexc ], [ %24, %22 ]
  %31 = phi ptr [ %.pre.i.i, %.noexc ], [ %20, %22 ]
  %32 = getelementptr inbounds i8, ptr %31, i64 -4
  %33 = zext i32 %30 to i64
  %34 = getelementptr inbounds nuw ptr, ptr %31, i64 %33
  store ptr %14, ptr %34, align 8, !tbaa !90
  %35 = add i32 %30, 1
  store i32 %35, ptr %32, align 4, !tbaa !21
  %36 = getelementptr inbounds nuw i8, ptr %.012, i64 8
  %.not = icmp eq ptr %36, %.ptr13
  br i1 %.not, label %._crit_edge, label %.lr.ph

37:                                               ; preds = %28, %.lr.ph
  %38 = landingpad { ptr, i32 }
          cleanup
  tail call void @_ZN15ref_vector_coreI4expr19ref_manager_wrapperIS0_11ast_managerEED2Ev(ptr noundef nonnull align 8 dereferenceable(16) %0) #21
  resume { ptr, i32 } %38

._crit_edge:                                      ; preds = %29, %3
  ret void
}